; Function Attrs: mustprogress nofree norecurse nosync nounwind willreturn memory(read, inaccessiblemem: none) uwtable
define noundef i32 @_ZNK10open_spiel9gin_rummy13GinRummyUtils14TotalCardValueERKSt6vectorIS2_IiSaIiEESaIS4_EE(ptr nocapture noundef nonnull readonly align 8 dereferenceable(120) %0, ptr nocapture noundef nonnull readonly align 8 dereferenceable(24) %1) local_unnamed_addr #7 align 2 {
  %3 = load ptr, ptr %1, align 8
  %4 = getelementptr inbounds nuw i8, ptr %1, i64 8
  %5 = load ptr, ptr %4, align 8
  %.not20 = icmp eq ptr %3, %5
  br i1 %.not20, label %._crit_edge25, label %.lr.ph24

.lr.ph24:                                         ; preds = %2
  %6 = load i32, ptr %0, align 8
  br label %7

7:                                                ; preds = %.lr.ph24, %._crit_edge
  %.022 = phi i32 [ 0, %.lr.ph24 ], [ %.1.lcssa, %._crit_edge ]
  %.sroa.013.021 = phi ptr [ %3, %.lr.ph24 ], [ %16, %._crit_edge ]
  %8 = load ptr, ptr %.sroa.013.021, align 8
  %9 = getelementptr inbounds nuw i8, ptr %.sroa.013.021, i64 8
  %10 = load ptr, ptr %9, align 8
  %.not1617 = icmp eq ptr %8, %10
  br i1 %.not1617, label %._crit_edge, label %.lr.ph

.lr.ph:                                           ; preds = %7, %.lr.ph
  %.119 = phi i32 [ %14, %.lr.ph ], [ %.022, %7 ]
  %.sroa.09.018 = phi ptr [ %15, %.lr.ph ], [ %8, %7 ]
  %11 = load i32, ptr %.sroa.09.018, align 4
  %12 = srem i32 %11, %6
  %13 = tail call i32 @llvm.smin.i32(i32 %12, i32 9)
  %.sroa.speculated.i = add i32 %.119, 1
  %14 = add i32 %.sroa.speculated.i, %13
  %15 = getelementptr inbounds i8, ptr %.sroa.09.018, i64 4
  %.not16 = icmp eq ptr %15, %10
  br i1 %.not16, label %._crit_edge, label %.lr.ph

._crit_edge:                                      ; preds = %.lr.ph, %7
  %.1.lcssa = phi i32 [ %.022, %7 ], [ %14, %.lr.ph ]
  %16 = getelementptr inbounds i8, ptr %.sroa.013.021, i64 24
  %.not = icmp eq ptr %16, %5
  br i1 %.not, label %._crit_edge25, label %7

._crit_edge25:                                    ; preds = %._crit_edge, %2
  %.0.lcssa = phi i32 [ 0, %2 ], [ %.1.lcssa, %._crit_edge ]
  ret i32 %.0.lcssa
}